; Function Attrs: mustprogress nounwind uwtable
define dso_local noundef ptr @_ZNK5clang6driver9ToolChain22getCompilerRTArgStringERKN4llvm3opt7ArgListENS2_9StringRefENS1_8FileTypeE(ptr noundef nonnull align 8 dereferenceable(2168) %0, ptr noundef nonnull align 8 dereferenceable(176) %1, ptr %2, i64 %3, i32 noundef %4) local_unnamed_addr #0 align 2 {
  %6 = alloca %"class.llvm::SmallString.295", align 8
  %7 = alloca %"class.llvm::Twine", align 8
  %8 = alloca %"class.std::__cxx11::basic_string", align 8
  %9 = load ptr, ptr %0, align 8
  %10 = getelementptr inbounds i8, ptr %9, i64 304
  %11 = load ptr, ptr %10, align 8
  call void %11(ptr dead_on_unwind nonnull writable sret(%"class.std::__cxx11::basic_string") align 8 %8, ptr noundef nonnull align 8 dereferenceable(2168) %0, ptr noundef nonnull align 8 dereferenceable(176) %1, ptr %2, i64 %3, i32 noundef %4) #25
  %12 = getelementptr inbounds nuw i8, ptr %7, i64 32
  store i8 4, ptr %12, align 8
  %13 = getelementptr inbounds nuw i8, ptr %7, i64 33
  store i8 1, ptr %13, align 1
  store ptr %8, ptr %7, align 8
  call void @llvm.lifetime.start.p0(i64 280, ptr nonnull %6)
  %14 = getelementptr inbounds i8, ptr %6, i64 24
  call void @_ZN4llvm15SmallVectorBaseImEC2EPvm(ptr noundef nonnull align 8 dereferenceable(24) %6, ptr noundef nonnull %14, i64 noundef 256) #25
  %15 = call { ptr, i64 } @_ZNK4llvm5Twine11toStringRefERNS_15SmallVectorImplIcEE(ptr noundef nonnull align 8 dereferenceable(34) %7, ptr noundef nonnull align 8 dereferenceable(24) %6)
  %16 = extractvalue { ptr, i64 } %15, 0
  %17 = extractvalue { ptr, i64 } %15, 1
  %18 = load ptr, ptr %1, align 8
  %19 = getelementptr inbounds i8, ptr %18, i64 16
  %20 = load ptr, ptr %19, align 8
  %21 = call noundef ptr %20(ptr noundef nonnull align 8 dereferenceable(176) %1, ptr %16, i64 %17) #25
  %22 = call noundef i64 @_ZNK4llvm15SmallVectorBaseImE4sizeEv(ptr noundef nonnull align 8 dereferenceable(24) %6) #25
  %23 = load ptr, ptr %6, align 8
  %24 = icmp eq ptr %23, %14
  br i1 %24, label %_ZNK4llvm3opt7ArgList13MakeArgStringERKNS_5TwineE.exit, label %25

25:                                               ; preds = %5
  call void @free(ptr noundef %23) #25
  br label %_ZNK4llvm3opt7ArgList13MakeArgStringERKNS_5TwineE.exit

_ZNK4llvm3opt7ArgList13MakeArgStringERKNS_5TwineE.exit: ; preds = %5, %25
  call void @llvm.lifetime.end.p0(i64 280, ptr nonnull %6)
  call void @_ZNSt7__cxx1112basic_stringIcSt11char_traitsIcESaIcEED1Ev(ptr noundef nonnull align 8 dereferenceable(32) %8) #25
  ret ptr %21
}